; Function Attrs: mustprogress uwtable
define hidden noundef zeroext i1 @_ZN4cvc58internal6theory11quantifiers15QuantAttributes20checkSygusConjectureENS0_12NodeTemplateILb1EEE(ptr noundef readonly captures(none) %0) local_unnamed_addr #3 align 2 personality ptr @__gxx_personality_v0 {
  %2 = alloca %"class.cvc5::internal::NodeTemplate", align 8
  %3 = load ptr, ptr %0, align 8, !tbaa !15
  %4 = getelementptr inbounds nuw i8, ptr %3, i64 8
  %5 = load i64, ptr %4, align 8
  %6 = and i64 %5, 1023
  %7 = icmp eq i64 %6, 365
  br i1 %7, label %8, label %_ZN4cvc58internal12NodeTemplateILb1EED2Ev.exit

8:                                                ; preds = %1
  %9 = tail call noundef i32 @_ZN4cvc58internal4kind10metaKindOfENS1_6Kind_tE(i32 noundef 365)
  %10 = icmp eq i32 %9, 2
  %11 = load i64, ptr %4, align 8
  %12 = lshr i64 %11, 32
  %13 = and i64 %12, 67108863
  %14 = sext i1 %10 to i64
  %15 = add nsw i64 %13, %14
  %16 = and i64 %15, 4294967295
  %17 = icmp eq i64 %16, 3
  br i1 %17, label %18, label %_ZN4cvc58internal12NodeTemplateILb1EED2Ev.exit

18:                                               ; preds = %8
  tail call void @llvm.experimental.noalias.scope.decl(metadata !215)
  %19 = load ptr, ptr %0, align 8, !tbaa !15, !noalias !215
  %20 = getelementptr inbounds nuw i8, ptr %19, i64 8
  %21 = load i64, ptr %20, align 8, !noalias !215
  %22 = trunc i64 %21 to i32
  %23 = and i32 %22, 1023
  %24 = icmp eq i32 %23, 1023
  %25 = select i1 %24, i32 -1, i32 %23
  %26 = tail call noundef i32 @_ZN4cvc58internal4kind10metaKindOfENS1_6Kind_tE(i32 noundef %25), !noalias !215
  %27 = icmp eq i32 %26, 2
  %spec.select.i.i = select i1 %27, i64 3, i64 2
  %28 = getelementptr inbounds nuw i8, ptr %19, i64 24
  %29 = getelementptr inbounds nuw [0 x ptr], ptr %28, i64 0, i64 %spec.select.i.i
  %30 = load ptr, ptr %29, align 8, !tbaa !17, !noalias !215
  store ptr %30, ptr %2, align 8, !tbaa !15, !alias.scope !215
  %31 = load i64, ptr %30, align 8, !noalias !215
  %32 = lshr i64 %31, 40
  %33 = trunc nuw nsw i64 %32 to i32
  %34 = and i32 %33, 1048575
  %35 = icmp samesign ult i32 %34, 1048574
  br i1 %35, label %36, label %41, !prof !120

36:                                               ; preds = %18
  %37 = add i64 %31, 1099511627776
  %38 = and i64 %37, 1152920405095219200
  %39 = and i64 %31, -1152920405095219201
  %40 = or disjoint i64 %38, %39
  store i64 %40, ptr %30, align 8, !noalias !215
  br label %_ZNK4cvc58internal12NodeTemplateILb1EEixEi.exit

41:                                               ; preds = %18
  %42 = icmp eq i32 %34, 1048574
  br i1 %42, label %43, label %_ZNK4cvc58internal12NodeTemplateILb1EEixEi.exit, !prof !121

43:                                               ; preds = %41
  %44 = or i64 %31, 1152920405095219200
  store i64 %44, ptr %30, align 8, !noalias !215
  tail call void @_ZN4cvc58internal4expr9NodeValue20markRefCountMaxedOutEv(ptr noundef nonnull align 8 dereferenceable(24) %30), !noalias !215
  br label %_ZNK4cvc58internal12NodeTemplateILb1EEixEi.exit

_ZNK4cvc58internal12NodeTemplateILb1EEixEi.exit:  ; preds = %36, %41, %43
  %45 = invoke noundef zeroext i1 @_ZN4cvc58internal6theory11quantifiers15QuantAttributes30checkSygusConjectureAnnotationENS0_12NodeTemplateILb1EEE(ptr noundef nonnull %2)
          to label %46 unwind label %60

46:                                               ; preds = %_ZNK4cvc58internal12NodeTemplateILb1EEixEi.exit
  %47 = load i64, ptr %30, align 8
  %48 = and i64 %47, 1152920405095219200
  %.not.i.i = icmp eq i64 %48, 1152920405095219200
  br i1 %.not.i.i, label %_ZN4cvc58internal12NodeTemplateILb1EED2Ev.exit, label %49, !prof !121

49:                                               ; preds = %46
  %50 = add i64 %47, 1152920405095219200
  %51 = and i64 %50, 1152920405095219200
  %52 = and i64 %47, -1152920405095219201
  %53 = or disjoint i64 %51, %52
  store i64 %53, ptr %30, align 8
  %54 = icmp eq i64 %51, 0
  br i1 %54, label %55, label %_ZN4cvc58internal12NodeTemplateILb1EED2Ev.exit, !prof !121

55:                                               ; preds = %49
  invoke void @_ZN4cvc58internal4expr9NodeValue15markForDeletionEv(ptr noundef nonnull align 8 dereferenceable(24) %30)
          to label %_ZN4cvc58internal12NodeTemplateILb1EED2Ev.exit unwind label %56

56:                                               ; preds = %55
  %57 = landingpad { ptr, i32 }
          catch ptr null
  %58 = extractvalue { ptr, i32 } %57, 0
  tail call void @__clang_call_terminate(ptr %58) #28
  unreachable

_ZN4cvc58internal12NodeTemplateILb1EED2Ev.exit:   ; preds = %1, %8, %55, %49, %46
  %59 = phi i1 [ %45, %46 ], [ %45, %49 ], [ %45, %55 ], [ false, %8 ], [ false, %1 ]
  ret i1 %59

60:                                               ; preds = %_ZNK4cvc58internal12NodeTemplateILb1EEixEi.exit
  %61 = landingpad { ptr, i32 }
          cleanup
  call void @_ZN4cvc58internal12NodeTemplateILb1EED2Ev(ptr noundef nonnull align 8 dereferenceable(8) %2) #26
  resume { ptr, i32 } %61
}